; ModuleID = '27/2275.c'
source_filename = "27/2275.c"
target datalayout = "e-m:e-p270:32:32-p271:32:32-p272:64:64-i64:64-f80:128-n8:16:32:64-S128"
target triple = "x86_64-pc-linux-gnu"

@.str = private unnamed_addr constant [3 x i8] c"%d\00", align 1
@.str.1 = private unnamed_addr constant [12 x i8] c"%lf %lf %lf\00", align 1
@.str.2 = private unnamed_addr constant [17 x i8] c"x1=%.5f;x2=%.5f\0A\00", align 1
@.str.3 = private unnamed_addr constant [12 x i8] c"x1=x2=%.5f\0A\00", align 1
@.str.4 = private unnamed_addr constant [29 x i8] c"x1=%.5f+%.5fi;x2=%.5f-%.5fi\0A\00", align 1

; Function Attrs: noinline nounwind uwtable
define dso_local i32 @main() #0 {
  %1 = alloca i32, align 4
  %2 = alloca i32, align 4
  %3 = alloca i32, align 4
  %4 = alloca double, align 8
  %5 = alloca double, align 8
  %6 = alloca double, align 8
  %7 = alloca double, align 8
  %8 = alloca double, align 8
  %9 = alloca double, align 8
  store i32 0, i32* %1, align 4
  %10 = call i32 (i8*, ...) @__isoc99_scanf(i8* getelementptr inbounds ([3 x i8], [3 x i8]* @.str, i64 0, i64 0), i32* %3)
  store i32 1, i32* %2, align 4
  br label %11

11:                                               ; preds = %128, %0
  %12 = load i32, i32* %2, align 4
  %13 = load i32, i32* %3, align 4
  %14 = icmp sle i32 %12, %13
  br i1 %14, label %15, label %131

15:                                               ; preds = %11
  %16 = call i32 (i8*, ...) @__isoc99_scanf(i8* getelementptr inbounds ([12 x i8], [12 x i8]* @.str.1, i64 0, i64 0), double* %4, double* %5, double* %6)
  %17 = load double, double* %5, align 8
  %18 = load double, double* %5, align 8
  %19 = fmul double %17, %18
  %20 = load double, double* %4, align 8
  %21 = fmul double 4.000000e+00, %20
  %22 = load double, double* %6, align 8
  %23 = fmul double %21, %22
  %24 = fsub double %19, %23
  store double %24, double* %9, align 8
  %25 = load double, double* %9, align 8
  %26 = fcmp ogt double %25, 0.000000e+00
  br i1 %26, label %27, label %61

27:                                               ; preds = %15
  %28 = load double, double* %5, align 8
  %29 = fneg double %28
  %30 = load double, double* %5, align 8
  %31 = load double, double* %5, align 8
  %32 = fmul double %30, %31
  %33 = load double, double* %4, align 8
  %34 = fmul double 4.000000e+00, %33
  %35 = load double, double* %6, align 8
  %36 = fmul double %34, %35
  %37 = fsub double %32, %36
  %38 = call double @sqrt(double %37) #3
  %39 = fadd double %29, %38
  %40 = load double, double* %4, align 8
  %41 = fmul double 2.000000e+00, %40
  %42 = fdiv double %39, %41
  store double %42, double* %7, align 8
  %43 = load double, double* %5, align 8
  %44 = fneg double %43
  %45 = load double, double* %5, align 8
  %46 = load double, double* %5, align 8
  %47 = fmul double %45, %46
  %48 = load double, double* %4, align 8
  %49 = fmul double 4.000000e+00, %48
  %50 = load double, double* %6, align 8
  %51 = fmul double %49, %50
  %52 = fsub double %47, %51
  %53 = call double @sqrt(double %52) #3
  %54 = fsub double %44, %53
  %55 = load double, double* %4, align 8
  %56 = fmul double 2.000000e+00, %55
  %57 = fdiv double %54, %56
  store double %57, double* %8, align 8
  %58 = load double, double* %7, align 8
  %59 = load double, double* %8, align 8
  %60 = call i32 (i8*, ...) @printf(i8* getelementptr inbounds ([17 x i8], [17 x i8]* @.str.2, i64 0, i64 0), double %58, double %59)
  br label %127

61:                                               ; preds = %15
  %62 = load double, double* %9, align 8
  %63 = fcmp oeq double %62, 0.000000e+00
  br i1 %63, label %64, label %72

64:                                               ; preds = %61
  %65 = load double, double* %5, align 8
  %66 = fneg double %65
  %67 = load double, double* %4, align 8
  %68 = fmul double 2.000000e+00, %67
  %69 = fdiv double %66, %68
  store double %69, double* %7, align 8
  %70 = load double, double* %7, align 8
  %71 = call i32 (i8*, ...) @printf(i8* getelementptr inbounds ([12 x i8], [12 x i8]* @.str.3, i64 0, i64 0), double %70)
  br label %126

72:                                               ; preds = %61
  %73 = load double, double* %5, align 8
  %74 = fneg double %73
  %75 = load double, double* %4, align 8
  %76 = fmul double 2.000000e+00, %75
  %77 = fdiv double %74, %76
  %78 = fcmp oeq double %77, -0.000000e+00
  br i1 %78, label %79, label %101

79:                                               ; preds = %72
  %80 = load double, double* %5, align 8
  %81 = load double, double* %4, align 8
  %82 = fmul double 2.000000e+00, %81
  %83 = fdiv double %80, %82
  %84 = load double, double* %9, align 8
  %85 = fneg double %84
  %86 = call double @sqrt(double %85) #3
  %87 = load double, double* %4, align 8
  %88 = fmul double 2.000000e+00, %87
  %89 = fdiv double %86, %88
  %90 = load double, double* %5, align 8
  %91 = load double, double* %4, align 8
  %92 = fmul double 2.000000e+00, %91
  %93 = fdiv double %90, %92
  %94 = load double, double* %9, align 8
  %95 = fneg double %94
  %96 = call double @sqrt(double %95) #3
  %97 = load double, double* %4, align 8
  %98 = fmul double 2.000000e+00, %97
  %99 = fdiv double %96, %98
  %100 = call i32 (i8*, ...) @printf(i8* getelementptr inbounds ([29 x i8], [29 x i8]* @.str.4, i64 0, i64 0), double %83, double %89, double %93, double %99)
  br label %125

101:                                              ; preds = %72
  %102 = load double, double* %5, align 8
  %103 = fneg double %102
  %104 = load double, double* %4, align 8
  %105 = fmul double 2.000000e+00, %104
  %106 = fdiv double %103, %105
  %107 = load double, double* %9, align 8
  %108 = fneg double %107
  %109 = call double @sqrt(double %108) #3
  %110 = load double, double* %4, align 8
  %111 = fmul double 2.000000e+00, %110
  %112 = fdiv double %109, %111
  %113 = load double, double* %5, align 8
  %114 = fneg double %113
  %115 = load double, double* %4, align 8
  %116 = fmul double 2.000000e+00, %115
  %117 = fdiv double %114, %116
  %118 = load double, double* %9, align 8
  %119 = fneg double %118
  %120 = call double @sqrt(double %119) #3
  %121 = load double, double* %4, align 8
  %122 = fmul double 2.000000e+00, %121
  %123 = fdiv double %120, %122
  %124 = call i32 (i8*, ...) @printf(i8* getelementptr inbounds ([29 x i8], [29 x i8]* @.str.4, i64 0, i64 0), double %106, double %112, double %117, double %123)
  br label %125

125:                                              ; preds = %101, %79
  br label %126

126:                                              ; preds = %125, %64
  br label %127

127:                                              ; preds = %126, %27
  br label %128

128:                                              ; preds = %127
  %129 = load i32, i32* %2, align 4
  %130 = add nsw i32 %129, 1
  store i32 %130, i32* %2, align 4
  br label %11

131:                                              ; preds = %11
  %132 = load i32, i32* %1, align 4
  ret i32 %132
}

declare dso_local i32 @__isoc99_scanf(i8*, ...) #1

; Function Attrs: nounwind
declare dso_local double @sqrt(double) #2

declare dso_local i32 @printf(i8*, ...) #1


!llvm.module.flags = !{!0}
!llvm.ident = !{!1}

!0 = !{i32 1, !"wchar_size", i32 4}
!1 = !{!"clang version 10.0.0-4ubuntu1 "}
